; Function Attrs: mustprogress nounwind uwtable
define dso_local void @_ZN3net26QuicClientPushPromiseIndexD0Ev(ptr noundef nonnull align 8 dereferenceable(64) %this) unnamed_addr #1 align 2 personality ptr @__gxx_personality_v0 {
entry:
  store ptr getelementptr inbounds ({ [4 x ptr] }, ptr @_ZTVN3net26QuicClientPushPromiseIndexE, i64 0, i32 0, i64 2), ptr %this, align 8
  %promised_by_url_.i = getelementptr inbounds i8, ptr %this, i64 8
  %_M_before_begin.i.i.i.i.i = getelementptr inbounds i8, ptr %this, i64 24
  %0 = load ptr, ptr %_M_before_begin.i.i.i.i.i, align 8
  %tobool.not3.i.i.i.i.i = icmp eq ptr %0, null
  br i1 %tobool.not3.i.i.i.i.i, label %_ZNSt10_HashtableINSt7__cxx1112basic_stringIcSt11char_traitsIcESaIcEEESt4pairIKS5_PN3net22QuicClientPromisedInfoEESaISB_ENSt8__detail10_Select1stESt8equal_toIS5_ESt4hashIS5_ENSD_18_Mod_range_hashingENSD_20_Default_ranged_hashENSD_20_Prime_rehash_policyENSD_17_Hashtable_traitsILb1ELb0ELb1EEEE5clearEv.exit.i.i.i, label %while.body.i.i.i.i.i

while.body.i.i.i.i.i:                             ; preds = %entry, %while.body.i.i.i.i.i
  %__n.addr.04.i.i.i.i.i = phi ptr [ %1, %while.body.i.i.i.i.i ], [ %0, %entry ]
  %1 = load ptr, ptr %__n.addr.04.i.i.i.i.i, align 8
  %add.ptr.i.i.i.i.i.i = getelementptr inbounds i8, ptr %__n.addr.04.i.i.i.i.i, i64 8
  tail call void @_ZNSt7__cxx1112basic_stringIcSt11char_traitsIcESaIcEED1Ev(ptr noundef nonnull align 8 dereferenceable(32) %add.ptr.i.i.i.i.i.i) #10
  tail call void @_ZdlPv(ptr noundef nonnull %__n.addr.04.i.i.i.i.i) #11
  %tobool.not.i.i.i.i.i = icmp eq ptr %1, null
  br i1 %tobool.not.i.i.i.i.i, label %_ZNSt10_HashtableINSt7__cxx1112basic_stringIcSt11char_traitsIcESaIcEEESt4pairIKS5_PN3net22QuicClientPromisedInfoEESaISB_ENSt8__detail10_Select1stESt8equal_toIS5_ESt4hashIS5_ENSD_18_Mod_range_hashingENSD_20_Default_ranged_hashENSD_20_Prime_rehash_policyENSD_17_Hashtable_traitsILb1ELb0ELb1EEEE5clearEv.exit.i.i.i, label %while.body.i.i.i.i.i, !llvm.loop !5

_ZNSt10_HashtableINSt7__cxx1112basic_stringIcSt11char_traitsIcESaIcEEESt4pairIKS5_PN3net22QuicClientPromisedInfoEESaISB_ENSt8__detail10_Select1stESt8equal_toIS5_ESt4hashIS5_ENSD_18_Mod_range_hashingENSD_20_Default_ranged_hashENSD_20_Prime_rehash_policyENSD_17_Hashtable_traitsILb1ELb0ELb1EEEE5clearEv.exit.i.i.i: ; preds = %while.body.i.i.i.i.i, %entry
  %2 = load ptr, ptr %promised_by_url_.i, align 8
  %_M_bucket_count.i.i.i.i = getelementptr inbounds i8, ptr %this, i64 16
  %3 = load i64, ptr %_M_bucket_count.i.i.i.i, align 8
  %mul.i.i.i.i = shl i64 %3, 3
  tail call void @llvm.memset.p0.i64(ptr align 8 %2, i8 0, i64 %mul.i.i.i.i, i1 false)
  tail call void @llvm.memset.p0.i64(ptr noundef nonnull align 8 dereferenceable(16) %_M_before_begin.i.i.i.i.i, i8 0, i64 16, i1 false)
  %4 = load ptr, ptr %promised_by_url_.i, align 8
  %_M_single_bucket.i.i.i.i.i.i = getelementptr inbounds i8, ptr %this, i64 56
  %cmp.i.i.i.i.i.i = icmp eq ptr %_M_single_bucket.i.i.i.i.i.i, %4
  br i1 %cmp.i.i.i.i.i.i, label %_ZN3net26QuicClientPushPromiseIndexD2Ev.exit, label %if.end.i.i.i.i.i

if.end.i.i.i.i.i:                                 ; preds = %_ZNSt10_HashtableINSt7__cxx1112basic_stringIcSt11char_traitsIcESaIcEEESt4pairIKS5_PN3net22QuicClientPromisedInfoEESaISB_ENSt8__detail10_Select1stESt8equal_toIS5_ESt4hashIS5_ENSD_18_Mod_range_hashingENSD_20_Default_ranged_hashENSD_20_Prime_rehash_policyENSD_17_Hashtable_traitsILb1ELb0ELb1EEEE5clearEv.exit.i.i.i
  tail call void @_ZdlPv(ptr noundef %4) #11
  br label %_ZN3net26QuicClientPushPromiseIndexD2Ev.exit

_ZN3net26QuicClientPushPromiseIndexD2Ev.exit:     ; preds = %_ZNSt10_HashtableINSt7__cxx1112basic_stringIcSt11char_traitsIcESaIcEEESt4pairIKS5_PN3net22QuicClientPromisedInfoEESaISB_ENSt8__detail10_Select1stESt8equal_toIS5_ESt4hashIS5_ENSD_18_Mod_range_hashingENSD_20_Default_ranged_hashENSD_20_Prime_rehash_policyENSD_17_Hashtable_traitsILb1ELb0ELb1EEEE5clearEv.exit.i.i.i, %if.end.i.i.i.i.i
  tail call void @_ZdlPv(ptr noundef nonnull %this) #11
  ret void
}